; Function Attrs: nounwind uwtable
define i32 @CONF_dump_fp(ptr noundef %0, ptr noundef %1) local_unnamed_addr #0 {
  %3 = alloca %struct.conf_st, align 8
  %4 = tail call ptr @BIO_new_fp(ptr noundef %1, i32 noundef 0) #15
  %5 = icmp eq ptr %4, null
  br i1 %5, label %6, label %7

6:                                                ; preds = %2
  tail call void @ERR_new() #15
  tail call void @ERR_set_debug(ptr noundef nonnull @.str.1, i32 noundef 157, ptr noundef nonnull @__func__.CONF_dump_fp) #15
  tail call void (i32, i32, ptr, ...) @ERR_set_error(i32 noundef 14, i32 noundef 524295, ptr noundef null) #15
  br label %22

7:                                                ; preds = %2
  call void @llvm.lifetime.start.p0(i64 48, ptr nonnull %3) #15
  %8 = load ptr, ptr @default_CONF_method, align 8, !tbaa !3
  %9 = icmp eq ptr %8, null
  br i1 %9, label %10, label %CONF_dump_bio.exit

10:                                               ; preds = %7
  %11 = tail call ptr @NCONF_default() #15
  store ptr %11, ptr @default_CONF_method, align 8, !tbaa !3
  br label %CONF_dump_bio.exit

CONF_dump_bio.exit:                               ; preds = %7, %10
  %12 = phi ptr [ %11, %10 ], [ %8, %7 ]
  %13 = getelementptr inbounds nuw i8, ptr %12, i64 16
  %14 = load ptr, ptr %13, align 8, !tbaa !8
  %15 = call i32 %14(ptr noundef nonnull %3) #15
  %16 = getelementptr inbounds nuw i8, ptr %3, i64 16
  store ptr %0, ptr %16, align 8, !tbaa !11
  %17 = load ptr, ptr %3, align 8, !tbaa !16
  %18 = getelementptr inbounds nuw i8, ptr %17, i64 48
  %19 = load ptr, ptr %18, align 8, !tbaa !26
  %20 = call i32 %19(ptr noundef nonnull %3, ptr noundef nonnull %4) #15
  call void @llvm.lifetime.end.p0(i64 48, ptr nonnull %3) #15
  %21 = call i32 @BIO_free(ptr noundef nonnull %4) #15
  br label %22

22:                                               ; preds = %CONF_dump_bio.exit, %6
  %.0 = phi i32 [ 0, %6 ], [ %20, %CONF_dump_bio.exit ]
  ret i32 %.0
}